; Function Attrs: mustprogress uwtable
define void @_ZN3net22SpdyHeadersBlockParser16ParseBlockLengthEPNS_24SpdyPrefixedBufferReaderE(ptr noundef nonnull align 8 captures(none) dereferenceable(108) %0, ptr noundef nonnull %1) local_unnamed_addr #0 align 2 {
  %3 = alloca [4 x i8], align 4
  %4 = getelementptr inbounds nuw i8, ptr %0, i64 32
  call void @llvm.lifetime.start.p0(i64 4, ptr nonnull %3) #8
  store i32 0, ptr %3, align 4
  %5 = call noundef zeroext i1 @_ZN3net24SpdyPrefixedBufferReader5ReadNEmPc(ptr noundef nonnull align 8 dereferenceable(32) %1, i64 noundef 4, ptr noundef nonnull %3)
  br i1 %5, label %_ZN3net22SpdyHeadersBlockParser11ParseLengthEPNS_24SpdyPrefixedBufferReaderEPj.exit, label %_ZN3net22SpdyHeadersBlockParser11ParseLengthEPNS_24SpdyPrefixedBufferReaderEPj.exit.thread

_ZN3net22SpdyHeadersBlockParser11ParseLengthEPNS_24SpdyPrefixedBufferReaderEPj.exit.thread: ; preds = %2
  %6 = getelementptr inbounds nuw i8, ptr %0, i64 100
  store i32 1, ptr %6, align 4, !tbaa !29
  call void @llvm.lifetime.end.p0(i64 4, ptr nonnull %3) #8
  br label %.thread

_ZN3net22SpdyHeadersBlockParser11ParseLengthEPNS_24SpdyPrefixedBufferReaderEPj.exit: ; preds = %2
  %7 = load i32, ptr %3, align 4, !tbaa !33
  %8 = call noundef i32 @llvm.bswap.i32(i32 %7)
  store i32 %8, ptr %4, align 8, !tbaa !33
  %.phi.trans.insert = getelementptr inbounds nuw i8, ptr %0, i64 100
  %.pre = load i32, ptr %.phi.trans.insert, align 4, !tbaa !29
  %9 = icmp eq i32 %.pre, 0
  call void @llvm.lifetime.end.p0(i64 4, ptr nonnull %3) #8
  %10 = getelementptr inbounds nuw i8, ptr %0, i64 100
  br i1 %9, label %11, label %.thread

11:                                               ; preds = %_ZN3net22SpdyHeadersBlockParser11ParseLengthEPNS_24SpdyPrefixedBufferReaderEPj.exit
  %12 = load i32, ptr %4, align 8, !tbaa !26
  %13 = zext i32 %12 to i64
  %14 = getelementptr inbounds nuw i8, ptr %0, i64 16
  %15 = load i64, ptr %14, align 8, !tbaa !24
  %16 = icmp ult i64 %15, %13
  br i1 %16, label %17, label %18

17:                                               ; preds = %11
  store i32 3, ptr %10, align 4, !tbaa !29
  br label %.thread

18:                                               ; preds = %11
  %.pr = load i32, ptr %10, align 4, !tbaa !29
  %19 = icmp eq i32 %.pr, 0
  br i1 %19, label %20, label %.thread

20:                                               ; preds = %18
  %21 = getelementptr inbounds nuw i8, ptr %0, i64 40
  %22 = load ptr, ptr %21, align 8, !tbaa !27
  %23 = load ptr, ptr %22, align 8, !tbaa !3
  %24 = getelementptr inbounds nuw i8, ptr %23, i64 16
  %25 = load ptr, ptr %24, align 8
  call void %25(ptr noundef nonnull align 8 dereferenceable(8) %22)
  br label %.thread

.thread:                                          ; preds = %_ZN3net22SpdyHeadersBlockParser11ParseLengthEPNS_24SpdyPrefixedBufferReaderEPj.exit.thread, %_ZN3net22SpdyHeadersBlockParser11ParseLengthEPNS_24SpdyPrefixedBufferReaderEPj.exit, %17, %20, %18
  ret void
}